target datalayout = "e-m:e-p270:32:32-p271:32:32-p272:64:64-i64:64-i128:128-f80:128-n8:16:32:64-S128"
target triple = "x86_64-pc-linux-gnu"

%"class.duckdb_re2::Regexp" = type { i8, i8, i16, i16, i16, %union.anon, ptr, %union.anon.0 }
%union.anon = type { ptr }
%union.anon.0 = type { %struct.anon.1 }
%struct.anon.1 = type { i32, ptr }
%struct.anon = type { i32, i32 }

@_ZN10duckdb_re26RegexpC1ENS_8RegexpOpENS0_10ParseFlagsE = hidden unnamed_addr alias void (ptr, i32, i32), ptr @_ZN10duckdb_re26RegexpC2ENS_8RegexpOpENS0_10ParseFlagsE

; Function Attrs: mustprogress nounwind uwtable
define linkonce_odr hidden noundef ptr @_ZN10duckdb_re26Regexp3subEv(ptr noundef nonnull align 8 dereferenceable(40) %0) #0 comdat align 2 {
  %2 = alloca ptr, align 8
  %3 = alloca ptr, align 8
  store ptr %0, ptr %3, align 8, !tbaa !3
  %4 = load ptr, ptr %3, align 8
  %5 = getelementptr inbounds nuw %"class.duckdb_re2::Regexp", ptr %4, i32 0, i32 4
  %6 = load i16, ptr %5, align 2, !tbaa !18
  %7 = zext i16 %6 to i32
  %8 = icmp sle i32 %7, 1
  br i1 %8, label %9, label %11

9:                                                ; preds = %1
  %10 = getelementptr inbounds nuw %"class.duckdb_re2::Regexp", ptr %4, i32 0, i32 5
  store ptr %10, ptr %2, align 8
  br label %14

11:                                               ; preds = %1
  %12 = getelementptr inbounds nuw %"class.duckdb_re2::Regexp", ptr %4, i32 0, i32 5
  %13 = load ptr, ptr %12, align 8, !tbaa !20
  store ptr %13, ptr %2, align 8
  br label %14

14:                                               ; preds = %11, %9
  %15 = load ptr, ptr %2, align 8
  ret ptr %15
}

; Function Attrs: mustprogress uwtable
define linkonce_odr hidden void @_ZN10duckdb_re26Regexp8AllocSubEi(ptr noundef nonnull align 8 dereferenceable(40) %0, i32 noundef %1) #4 comdat align 2 {
  %3 = alloca ptr, align 8
  %4 = alloca i32, align 4
  store ptr %0, ptr %3, align 8, !tbaa !3
  store i32 %1, ptr %4, align 4, !tbaa !29
  %5 = load ptr, ptr %3, align 8
  %6 = load i32, ptr %4, align 4, !tbaa !29
  %7 = icmp sgt i32 %6, 1
  br i1 %7, label %8, label %17

8:                                                ; preds = %2
  %9 = load i32, ptr %4, align 4, !tbaa !29
  %10 = sext i32 %9 to i64
  %11 = call { i64, i1 } @llvm.umul.with.overflow.i64(i64 %10, i64 8)
  %12 = extractvalue { i64, i1 } %11, 1
  %13 = extractvalue { i64, i1 } %11, 0
  %14 = select i1 %12, i64 -1, i64 %13
  %15 = call noalias noundef nonnull ptr @_Znam(i64 noundef %14) #22
  %16 = getelementptr inbounds nuw %"class.duckdb_re2::Regexp", ptr %5, i32 0, i32 5
  store ptr %15, ptr %16, align 8, !tbaa !20
  br label %17

17:                                               ; preds = %8, %2
  %18 = load i32, ptr %4, align 4, !tbaa !29
  %19 = trunc i32 %18 to i16
  %20 = getelementptr inbounds nuw %"class.duckdb_re2::Regexp", ptr %5, i32 0, i32 4
  store i16 %19, ptr %20, align 2, !tbaa !18
  ret void
}

; Function Attrs: mustprogress uwtable
define hidden noundef ptr @_ZN10duckdb_re26Regexp6RepeatEPS0_NS0_10ParseFlagsEii(ptr noundef %0, i32 noundef %1, i32 noundef %2, i32 noundef %3) #4 align 2 personality ptr @__gxx_personality_v0 {
  %5 = alloca ptr, align 8
  %6 = alloca i32, align 4
  %7 = alloca i32, align 4
  %8 = alloca i32, align 4
  %9 = alloca ptr, align 8
  %10 = alloca ptr, align 8
  %11 = alloca i32, align 4
  store ptr %0, ptr %5, align 8, !tbaa !3
  store i32 %1, ptr %6, align 4, !tbaa !10
  store i32 %2, ptr %7, align 4, !tbaa !29
  store i32 %3, ptr %8, align 4, !tbaa !29
  call void @llvm.lifetime.start.p0(i64 8, ptr %9) #18
  %12 = call noalias noundef nonnull ptr @_Znwm(i64 noundef 40) #22
  %13 = load i32, ptr %6, align 4, !tbaa !10
  invoke void @_ZN10duckdb_re26RegexpC1ENS_8RegexpOpENS0_10ParseFlagsE(ptr noundef nonnull align 8 dereferenceable(40) %12, i32 noundef 10, i32 noundef %13)
          to label %14 unwind label %29

14:                                               ; preds = %4
  store ptr %12, ptr %9, align 8, !tbaa !3
  %15 = load ptr, ptr %9, align 8, !tbaa !3
  call void @_ZN10duckdb_re26Regexp8AllocSubEi(ptr noundef nonnull align 8 dereferenceable(40) %15, i32 noundef 1)
  %16 = load ptr, ptr %5, align 8, !tbaa !3
  %17 = load ptr, ptr %9, align 8, !tbaa !3
  %18 = call noundef ptr @_ZN10duckdb_re26Regexp3subEv(ptr noundef nonnull align 8 dereferenceable(40) %17)
  %19 = getelementptr inbounds ptr, ptr %18, i64 0
  store ptr %16, ptr %19, align 8, !tbaa !3
  %20 = load i32, ptr %7, align 4, !tbaa !29
  %21 = load ptr, ptr %9, align 8, !tbaa !3
  %22 = getelementptr inbounds nuw %"class.duckdb_re2::Regexp", ptr %21, i32 0, i32 7
  %23 = getelementptr inbounds nuw %struct.anon, ptr %22, i32 0, i32 1
  store i32 %20, ptr %23, align 4, !tbaa !20
  %24 = load i32, ptr %8, align 4, !tbaa !29
  %25 = load ptr, ptr %9, align 8, !tbaa !3
  %26 = getelementptr inbounds nuw %"class.duckdb_re2::Regexp", ptr %25, i32 0, i32 7
  %27 = getelementptr inbounds nuw %struct.anon, ptr %26, i32 0, i32 0
  store i32 %24, ptr %27, align 8, !tbaa !20
  %28 = load ptr, ptr %9, align 8, !tbaa !3
  call void @llvm.lifetime.end.p0(i64 8, ptr %9) #18
  ret ptr %28

29:                                               ; preds = %4
  %30 = landingpad { ptr, i32 }
          cleanup
  %31 = extractvalue { ptr, i32 } %30, 0
  store ptr %31, ptr %10, align 8
  %32 = extractvalue { ptr, i32 } %30, 1
  store i32 %32, ptr %11, align 4
  call void @_ZdlPv(ptr noundef %12) #19
  call void @llvm.lifetime.end.p0(i64 8, ptr %9) #18
  br label %33

33:                                               ; preds = %29
  %34 = load ptr, ptr %10, align 8
  %35 = load i32, ptr %11, align 4
  %36 = insertvalue { ptr, i32 } poison, ptr %34, 0
  %37 = insertvalue { ptr, i32 } %36, i32 %35, 1
  resume { ptr, i32 } %37
}