; Function Attrs: mustprogress uwtable
define hidden noalias noundef nonnull ptr @_ZN10duckdb_re26Regexp6RepeatEPS0_NS0_10ParseFlagsEii(ptr noundef %0, i32 noundef %1, i32 noundef %2, i32 noundef %3) local_unnamed_addr #7 align 2 personality ptr @__gxx_personality_v0 {
  %5 = tail call noalias noundef nonnull dereferenceable(40) ptr @_Znwm(i64 noundef 40) #31
  store i8 10, ptr %5, align 8, !tbaa !3
  %6 = getelementptr inbounds nuw i8, ptr %5, i64 1
  store i8 0, ptr %6, align 1, !tbaa !10
  %7 = getelementptr inbounds nuw i8, ptr %5, i64 2
  %8 = trunc i32 %1 to i16
  store i16 %8, ptr %7, align 2, !tbaa !11
  %9 = getelementptr inbounds nuw i8, ptr %5, i64 4
  store i16 1, ptr %9, align 4, !tbaa !12
  %10 = getelementptr inbounds nuw i8, ptr %5, i64 6
  %11 = getelementptr inbounds nuw i8, ptr %5, i64 16
  tail call void @llvm.memset.p0.i64(ptr noundef nonnull align 2 dereferenceable(34) %11, i8 0, i64 24, i1 false)
  store i16 1, ptr %10, align 2, !tbaa !13
  %12 = getelementptr inbounds nuw i8, ptr %5, i64 8
  store ptr %0, ptr %12, align 8, !tbaa !41
  %13 = getelementptr inbounds nuw i8, ptr %5, i64 24
  %14 = getelementptr inbounds nuw i8, ptr %5, i64 28
  store i32 %2, ptr %14, align 4, !tbaa !32
  store i32 %3, ptr %13, align 8, !tbaa !32
  ret ptr %5
}